; ModuleID = '46/1241.c'
source_filename = "46/1241.c"
target datalayout = "e-m:e-p270:32:32-p271:32:32-p272:64:64-i64:64-f80:128-n8:16:32:64-S128"
target triple = "x86_64-pc-linux-gnu"

@.str = private unnamed_addr constant [5 x i8] c"%d%d\00", align 1
@.str.1 = private unnamed_addr constant [3 x i8] c"%d\00", align 1
@.str.2 = private unnamed_addr constant [4 x i8] c"%d\0A\00", align 1

; Function Attrs: noinline nounwind uwtable
define dso_local i32 @main() #0 {
  %1 = alloca i32, align 4
  %2 = alloca i32, align 4
  %3 = alloca i32, align 4
  %4 = alloca i32, align 4
  %5 = alloca i32, align 4
  %6 = alloca i32, align 4
  %7 = alloca i32, align 4
  %8 = alloca [100 x [100 x i32]], align 16
  %9 = alloca i32, align 4
  %10 = alloca i32, align 4
  %11 = alloca i32, align 4
  %12 = alloca i32, align 4
  %13 = alloca i32, align 4
  %14 = alloca i32, align 4
  %15 = alloca i32, align 4
  %16 = alloca i32, align 4
  store i32 0, i32* %1, align 4
  %17 = call i32 (i8*, ...) @__isoc99_scanf(i8* getelementptr inbounds ([5 x i8], [5 x i8]* @.str, i64 0, i64 0), i32* %2, i32* %3)
  store i32 0, i32* %9, align 4
  br label %18

18:                                               ; preds = %39, %0
  %19 = load i32, i32* %9, align 4
  %20 = load i32, i32* %2, align 4
  %21 = icmp slt i32 %19, %20
  br i1 %21, label %22, label %42

22:                                               ; preds = %18
  store i32 0, i32* %10, align 4
  br label %23

23:                                               ; preds = %35, %22
  %24 = load i32, i32* %10, align 4
  %25 = load i32, i32* %3, align 4
  %26 = icmp slt i32 %24, %25
  br i1 %26, label %27, label %38

27:                                               ; preds = %23
  %28 = load i32, i32* %9, align 4
  %29 = sext i32 %28 to i64
  %30 = getelementptr inbounds [100 x [100 x i32]], [100 x [100 x i32]]* %8, i64 0, i64 %29
  %31 = load i32, i32* %10, align 4
  %32 = sext i32 %31 to i64
  %33 = getelementptr inbounds [100 x i32], [100 x i32]* %30, i64 0, i64 %32
  %34 = call i32 (i8*, ...) @__isoc99_scanf(i8* getelementptr inbounds ([3 x i8], [3 x i8]* @.str.1, i64 0, i64 0), i32* %33)
  br label %35

35:                                               ; preds = %27
  %36 = load i32, i32* %10, align 4
  %37 = add nsw i32 %36, 1
  store i32 %37, i32* %10, align 4
  br label %23

38:                                               ; preds = %23
  br label %39

39:                                               ; preds = %38
  %40 = load i32, i32* %9, align 4
  %41 = add nsw i32 %40, 1
  store i32 %41, i32* %9, align 4
  br label %18

42:                                               ; preds = %18
  %43 = load i32, i32* %2, align 4
  %44 = sub nsw i32 %43, 1
  store i32 %44, i32* %4, align 4
  store i32 0, i32* %5, align 4
  %45 = load i32, i32* %3, align 4
  %46 = sub nsw i32 %45, 1
  store i32 %46, i32* %6, align 4
  store i32 0, i32* %7, align 4
  br label %47

47:                                               ; preds = %178, %42
  %48 = load i32, i32* %5, align 4
  %49 = load i32, i32* %4, align 4
  %50 = icmp sle i32 %48, %49
  br i1 %50, label %51, label %55

51:                                               ; preds = %47
  %52 = load i32, i32* %7, align 4
  %53 = load i32, i32* %6, align 4
  %54 = icmp sle i32 %52, %53
  br label %55

55:                                               ; preds = %51, %47
  %56 = phi i1 [ false, %47 ], [ %54, %51 ]
  br i1 %56, label %57, label %187

57:                                               ; preds = %55
  %58 = load i32, i32* %5, align 4
  %59 = load i32, i32* %4, align 4
  %60 = icmp eq i32 %58, %59
  br i1 %60, label %61, label %80

61:                                               ; preds = %57
  %62 = load i32, i32* %7, align 4
  store i32 %62, i32* %11, align 4
  br label %63

63:                                               ; preds = %76, %61
  %64 = load i32, i32* %11, align 4
  %65 = load i32, i32* %6, align 4
  %66 = icmp sle i32 %64, %65
  br i1 %66, label %67, label %79

67:                                               ; preds = %63
  %68 = load i32, i32* %5, align 4
  %69 = sext i32 %68 to i64
  %70 = getelementptr inbounds [100 x [100 x i32]], [100 x [100 x i32]]* %8, i64 0, i64 %69
  %71 = load i32, i32* %11, align 4
  %72 = sext i32 %71 to i64
  %73 = getelementptr inbounds [100 x i32], [100 x i32]* %70, i64 0, i64 %72
  %74 = load i32, i32* %73, align 4
  %75 = call i32 (i8*, ...) @printf(i8* getelementptr inbounds ([4 x i8], [4 x i8]* @.str.2, i64 0, i64 0), i32 %74)
  br label %76

76:                                               ; preds = %67
  %77 = load i32, i32* %11, align 4
  %78 = add nsw i32 %77, 1
  store i32 %78, i32* %11, align 4
  br label %63

79:                                               ; preds = %63
  br label %187

80:                                               ; preds = %57
  %81 = load i32, i32* %6, align 4
  %82 = load i32, i32* %7, align 4
  %83 = icmp eq i32 %81, %82
  br i1 %83, label %84, label %103

84:                                               ; preds = %80
  %85 = load i32, i32* %5, align 4
  store i32 %85, i32* %12, align 4
  br label %86

86:                                               ; preds = %99, %84
  %87 = load i32, i32* %12, align 4
  %88 = load i32, i32* %4, align 4
  %89 = icmp sle i32 %87, %88
  br i1 %89, label %90, label %102

90:                                               ; preds = %86
  %91 = load i32, i32* %12, align 4
  %92 = sext i32 %91 to i64
  %93 = getelementptr inbounds [100 x [100 x i32]], [100 x [100 x i32]]* %8, i64 0, i64 %92
  %94 = load i32, i32* %7, align 4
  %95 = sext i32 %94 to i64
  %96 = getelementptr inbounds [100 x i32], [100 x i32]* %93, i64 0, i64 %95
  %97 = load i32, i32* %96, align 4
  %98 = call i32 (i8*, ...) @printf(i8* getelementptr inbounds ([4 x i8], [4 x i8]* @.str.2, i64 0, i64 0), i32 %97)
  br label %99

99:                                               ; preds = %90
  %100 = load i32, i32* %12, align 4
  %101 = add nsw i32 %100, 1
  store i32 %101, i32* %12, align 4
  br label %86

102:                                              ; preds = %86
  br label %187

103:                                              ; preds = %80
  %104 = load i32, i32* %7, align 4
  store i32 %104, i32* %13, align 4
  br label %105

105:                                              ; preds = %118, %103
  %106 = load i32, i32* %13, align 4
  %107 = load i32, i32* %6, align 4
  %108 = icmp sle i32 %106, %107
  br i1 %108, label %109, label %121

109:                                              ; preds = %105
  %110 = load i32, i32* %5, align 4
  %111 = sext i32 %110 to i64
  %112 = getelementptr inbounds [100 x [100 x i32]], [100 x [100 x i32]]* %8, i64 0, i64 %111
  %113 = load i32, i32* %13, align 4
  %114 = sext i32 %113 to i64
  %115 = getelementptr inbounds [100 x i32], [100 x i32]* %112, i64 0, i64 %114
  %116 = load i32, i32* %115, align 4
  %117 = call i32 (i8*, ...) @printf(i8* getelementptr inbounds ([4 x i8], [4 x i8]* @.str.2, i64 0, i64 0), i32 %116)
  br label %118

118:                                              ; preds = %109
  %119 = load i32, i32* %13, align 4
  %120 = add nsw i32 %119, 1
  store i32 %120, i32* %13, align 4
  br label %105

121:                                              ; preds = %105
  %122 = load i32, i32* %5, align 4
  %123 = add nsw i32 %122, 1
  store i32 %123, i32* %14, align 4
  br label %124

124:                                              ; preds = %137, %121
  %125 = load i32, i32* %14, align 4
  %126 = load i32, i32* %4, align 4
  %127 = icmp sle i32 %125, %126
  br i1 %127, label %128, label %140

128:                                              ; preds = %124
  %129 = load i32, i32* %14, align 4
  %130 = sext i32 %129 to i64
  %131 = getelementptr inbounds [100 x [100 x i32]], [100 x [100 x i32]]* %8, i64 0, i64 %130
  %132 = load i32, i32* %6, align 4
  %133 = sext i32 %132 to i64
  %134 = getelementptr inbounds [100 x i32], [100 x i32]* %131, i64 0, i64 %133
  %135 = load i32, i32* %134, align 4
  %136 = call i32 (i8*, ...) @printf(i8* getelementptr inbounds ([4 x i8], [4 x i8]* @.str.2, i64 0, i64 0), i32 %135)
  br label %137

137:                                              ; preds = %128
  %138 = load i32, i32* %14, align 4
  %139 = add nsw i32 %138, 1
  store i32 %139, i32* %14, align 4
  br label %124

140:                                              ; preds = %124
  %141 = load i32, i32* %6, align 4
  %142 = sub nsw i32 %141, 1
  store i32 %142, i32* %15, align 4
  br label %143

143:                                              ; preds = %156, %140
  %144 = load i32, i32* %15, align 4
  %145 = load i32, i32* %7, align 4
  %146 = icmp sge i32 %144, %145
  br i1 %146, label %147, label %159

147:                                              ; preds = %143
  %148 = load i32, i32* %4, align 4
  %149 = sext i32 %148 to i64
  %150 = getelementptr inbounds [100 x [100 x i32]], [100 x [100 x i32]]* %8, i64 0, i64 %149
  %151 = load i32, i32* %15, align 4
  %152 = sext i32 %151 to i64
  %153 = getelementptr inbounds [100 x i32], [100 x i32]* %150, i64 0, i64 %152
  %154 = load i32, i32* %153, align 4
  %155 = call i32 (i8*, ...) @printf(i8* getelementptr inbounds ([4 x i8], [4 x i8]* @.str.2, i64 0, i64 0), i32 %154)
  br label %156

156:                                              ; preds = %147
  %157 = load i32, i32* %15, align 4
  %158 = add nsw i32 %157, -1
  store i32 %158, i32* %15, align 4
  br label %143

159:                                              ; preds = %143
  %160 = load i32, i32* %4, align 4
  %161 = sub nsw i32 %160, 1
  store i32 %161, i32* %16, align 4
  br label %162

162:                                              ; preds = %175, %159
  %163 = load i32, i32* %16, align 4
  %164 = load i32, i32* %5, align 4
  %165 = icmp sgt i32 %163, %164
  br i1 %165, label %166, label %178

166:                                              ; preds = %162
  %167 = load i32, i32* %16, align 4
  %168 = sext i32 %167 to i64
  %169 = getelementptr inbounds [100 x [100 x i32]], [100 x [100 x i32]]* %8, i64 0, i64 %168
  %170 = load i32, i32* %7, align 4
  %171 = sext i32 %170 to i64
  %172 = getelementptr inbounds [100 x i32], [100 x i32]* %169, i64 0, i64 %171
  %173 = load i32, i32* %172, align 4
  %174 = call i32 (i8*, ...) @printf(i8* getelementptr inbounds ([4 x i8], [4 x i8]* @.str.2, i64 0, i64 0), i32 %173)
  br label %175

175:                                              ; preds = %166
  %176 = load i32, i32* %16, align 4
  %177 = add nsw i32 %176, -1
  store i32 %177, i32* %16, align 4
  br label %162

178:                                              ; preds = %162
  %179 = load i32, i32* %4, align 4
  %180 = add nsw i32 %179, -1
  store i32 %180, i32* %4, align 4
  %181 = load i32, i32* %5, align 4
  %182 = add nsw i32 %181, 1
  store i32 %182, i32* %5, align 4
  %183 = load i32, i32* %6, align 4
  %184 = add nsw i32 %183, -1
  store i32 %184, i32* %6, align 4
  %185 = load i32, i32* %7, align 4
  %186 = add nsw i32 %185, 1
  store i32 %186, i32* %7, align 4
  br label %47

187:                                              ; preds = %102, %79, %55
  ret i32 0
}

declare dso_local i32 @__isoc99_scanf(i8*, ...) #1

declare dso_local i32 @printf(i8*, ...) #1


!llvm.module.flags = !{!0}
!llvm.ident = !{!1}

!0 = !{i32 1, !"wchar_size", i32 4}
!1 = !{!"clang version 10.0.0-4ubuntu1 "}
